target datalayout = "e-m:e-p270:32:32-p271:32:32-p272:64:64-i64:64-i128:128-f80:128-n8:16:32:64-S128"
target triple = "x86_64-pc-linux-gnu"

%union.pthread_mutex_t = type { %struct.__pthread_mutex_s }
%struct.__pthread_mutex_s = type { i32, i32, i32, i32, i32, i16, i16, %struct.__pthread_internal_list }
%struct.__pthread_internal_list = type { ptr, ptr }
%struct.slurmctld_config = type { ptr, %union.pthread_cond_t, %union.pthread_mutex_t, %union.pthread_cond_t, %union.pthread_mutex_t, i64, [64 x i8], [64 x i8], i8, i8, i32, i64, i8, %union.pthread_cond_t, %union.pthread_mutex_t, i64, i64, i64, i64 }
%union.pthread_cond_t = type { %struct.__pthread_cond_s }
%struct.__pthread_cond_s = type { %union.__atomic_wide_counter, %union.__atomic_wide_counter, [2 x i32], [2 x i32], i32, i32, [2 x i32] }
%union.__atomic_wide_counter = type { i64 }
%struct.pollfd = type { i32, i16, i16 }
%struct.timeval = type { i64, i64 }

@syscfg_path = internal global ptr null, align 8
@syscfg_timeout = internal global i32 0, align 4
@.str.100 = private unnamed_addr constant [28 x i8] c"node_features_knl_generic.c\00", align 1
@slurmctld_config = dso_local global %struct.slurmctld_config zeroinitializer, align 8
@__const._run_script.pfd = private unnamed_addr constant [2 x i32] [i32 -1, i32 -1], align 4
@.str.140 = private unnamed_addr constant [31 x i8] c"%s: %s can not be executed: %m\00", align 1
@__func__._run_script = private unnamed_addr constant [12 x i8] c"_run_script\00", align 1
@.str.141 = private unnamed_addr constant [52 x i8] c"Slurm node_features/knl_generic configuration error\00", align 1
@.str.142 = private unnamed_addr constant [15 x i8] c"%s: pipe(): %m\00", align 1
@.str.143 = private unnamed_addr constant [13 x i8] c"System error\00", align 1
@.str.144 = private unnamed_addr constant [18 x i8] c"%s: execv(%s): %m\00", align 1
@.str.145 = private unnamed_addr constant [15 x i8] c"%s: fork(): %m\00", align 1
@.str.146 = private unnamed_addr constant [37 x i8] c"%s: killing %s operation on shutdown\00", align 1
@.str.147 = private unnamed_addr constant [30 x i8] c"%s: %s poll timeout @ %d msec\00", align 1
@.str.148 = private unnamed_addr constant [15 x i8] c"%s: %s poll:%m\00", align 1
@.str.149 = private unnamed_addr constant [17 x i8] c"%s: read(%s): %m\00", align 1

; Function Attrs: nounwind uwtable
define internal ptr @_run_script(ptr noundef %0, ptr noundef %1, ptr noundef %2) #0 {
  %4 = alloca ptr, align 8
  %5 = alloca ptr, align 8
  %6 = alloca ptr, align 8
  %7 = alloca ptr, align 8
  %8 = alloca i32, align 4
  %9 = alloca i32, align 4
  %10 = alloca i32, align 4
  %11 = alloca i32, align 4
  %12 = alloca i32, align 4
  %13 = alloca i32, align 4
  %14 = alloca ptr, align 8
  %15 = alloca [2 x i32], align 4
  %16 = alloca i32, align 4
  %17 = alloca %struct.pollfd, align 4
  %18 = alloca %struct.timeval, align 8
  store ptr %0, ptr %5, align 8
  store ptr %1, ptr %6, align 8
  store ptr %2, ptr %7, align 8
  call void @llvm.lifetime.start.p0(i64 4, ptr %8) #9
  call void @llvm.lifetime.start.p0(i64 4, ptr %9) #9
  call void @llvm.lifetime.start.p0(i64 4, ptr %10) #9
  call void @llvm.lifetime.start.p0(i64 4, ptr %11) #9
  store i32 0, ptr %11, align 4
  call void @llvm.lifetime.start.p0(i64 4, ptr %12) #9
  store i32 0, ptr %12, align 4
  call void @llvm.lifetime.start.p0(i64 4, ptr %13) #9
  call void @llvm.lifetime.start.p0(i64 8, ptr %14) #9
  store ptr null, ptr %14, align 8
  call void @llvm.lifetime.start.p0(i64 8, ptr %15) #9
  call void @llvm.memcpy.p0.p0.i64(ptr align 4 %15, ptr align 4 @__const._run_script.pfd, i64 8, i1 false)
  %19 = load ptr, ptr %5, align 8
  %20 = call i32 @access(ptr noundef %19, i32 noundef 5) #9
  %21 = icmp slt i32 %20, 0
  br i1 %21, label %22, label %28

22:                                               ; preds = %3
  %23 = load ptr, ptr %5, align 8
  %24 = call i32 (ptr, ...) @error(ptr noundef @.str.140, ptr noundef @__func__._run_script, ptr noundef %23)
  %25 = load ptr, ptr %7, align 8
  store i32 127, ptr %25, align 4
  %26 = call ptr @xstrdup(ptr noundef @.str.141)
  store ptr %26, ptr %14, align 8
  %27 = load ptr, ptr %14, align 8
  store ptr %27, ptr %4, align 8
  store i32 1, ptr %16, align 4
  br label %206

28:                                               ; preds = %3
  %29 = getelementptr inbounds [2 x i32], ptr %15, i64 0, i64 0
  %30 = call i32 @pipe(ptr noundef %29) #9
  %31 = icmp ne i32 %30, 0
  br i1 %31, label %32, label %37

32:                                               ; preds = %28
  %33 = call i32 (ptr, ...) @error(ptr noundef @.str.142, ptr noundef @__func__._run_script)
  %34 = load ptr, ptr %7, align 8
  store i32 127, ptr %34, align 4
  %35 = call ptr @xstrdup(ptr noundef @.str.143)
  store ptr %35, ptr %14, align 8
  %36 = load ptr, ptr %14, align 8
  store ptr %36, ptr %4, align 8
  store i32 1, ptr %16, align 4
  br label %206

37:                                               ; preds = %28
  %38 = call i32 @fork() #9
  store i32 %38, ptr %13, align 4
  %39 = icmp eq i32 %38, 0
  br i1 %39, label %40, label %73

40:                                               ; preds = %37
  %41 = call i64 @sysconf(i32 noundef 4) #9
  %42 = trunc i64 %41 to i32
  store i32 %42, ptr %8, align 4
  %43 = getelementptr inbounds [2 x i32], ptr %15, i64 0, i64 1
  %44 = load i32, ptr %43, align 4
  %45 = call i32 @dup2(i32 noundef %44, i32 noundef 2) #9
  %46 = getelementptr inbounds [2 x i32], ptr %15, i64 0, i64 1
  %47 = load i32, ptr %46, align 4
  %48 = call i32 @dup2(i32 noundef %47, i32 noundef 1) #9
  store i32 0, ptr %9, align 4
  br label %49

49:                                               ; preds = %63, %40
  %50 = load i32, ptr %9, align 4
  %51 = load i32, ptr %8, align 4
  %52 = icmp slt i32 %50, %51
  br i1 %52, label %53, label %66

53:                                               ; preds = %49
  %54 = load i32, ptr %9, align 4
  %55 = icmp ne i32 %54, 2
  br i1 %55, label %56, label %62

56:                                               ; preds = %53
  %57 = load i32, ptr %9, align 4
  %58 = icmp ne i32 %57, 1
  br i1 %58, label %59, label %62

59:                                               ; preds = %56
  %60 = load i32, ptr %9, align 4
  %61 = call i32 @close(i32 noundef %60)
  br label %62

62:                                               ; preds = %59, %56, %53
  br label %63

63:                                               ; preds = %62
  %64 = load i32, ptr %9, align 4
  %65 = add nsw i32 %64, 1
  store i32 %65, ptr %9, align 4
  br label %49, !llvm.loop !30

66:                                               ; preds = %49
  %67 = call i32 @setpgid(i32 noundef 0, i32 noundef 0) #9
  %68 = load ptr, ptr %5, align 8
  %69 = load ptr, ptr %6, align 8
  %70 = call i32 @execv(ptr noundef %68, ptr noundef %69) #9
  %71 = load ptr, ptr %5, align 8
  %72 = call i32 (ptr, ...) @error(ptr noundef @.str.144, ptr noundef @__func__._run_script, ptr noundef %71)
  call void @_exit(i32 noundef 127) #10
  unreachable

73:                                               ; preds = %37
  %74 = load i32, ptr %13, align 4
  %75 = icmp slt i32 %74, 0
  br i1 %75, label %76, label %84

76:                                               ; preds = %73
  %77 = getelementptr inbounds [2 x i32], ptr %15, i64 0, i64 0
  %78 = load i32, ptr %77, align 4
  %79 = call i32 @close(i32 noundef %78)
  %80 = getelementptr inbounds [2 x i32], ptr %15, i64 0, i64 1
  %81 = load i32, ptr %80, align 4
  %82 = call i32 @close(i32 noundef %81)
  %83 = call i32 (ptr, ...) @error(ptr noundef @.str.145, ptr noundef @__func__._run_script)
  br label %203

84:                                               ; preds = %73
  call void @llvm.lifetime.start.p0(i64 8, ptr %17) #9
  call void @llvm.lifetime.start.p0(i64 16, ptr %18) #9
  store i32 1024, ptr %11, align 4
  %85 = load i32, ptr %11, align 4
  %86 = sext i32 %85 to i64
  %87 = call ptr @slurm_xcalloc(i64 noundef 1, i64 noundef %86, i1 noundef zeroext true, i1 noundef zeroext false, ptr noundef @.str.100, i32 noundef 614, ptr noundef @__func__._run_script)
  store ptr %87, ptr %14, align 8
  %88 = getelementptr inbounds [2 x i32], ptr %15, i64 0, i64 1
  %89 = load i32, ptr %88, align 4
  %90 = call i32 @close(i32 noundef %89)
  %91 = call i32 @gettimeofday(ptr noundef %18, ptr noundef null) #9
  br label %92

92:                                               ; preds = %190, %170, %130, %84
  br label %93

93:                                               ; preds = %92
  %94 = load i64, ptr getelementptr inbounds nuw (%struct.slurmctld_config, ptr @slurmctld_config, i32 0, i32 11), align 8
  %95 = icmp ne i64 %94, 0
  br i1 %95, label %96, label %101

96:                                               ; preds = %93
  %97 = load ptr, ptr %6, align 8
  %98 = getelementptr inbounds ptr, ptr %97, i64 1
  %99 = load ptr, ptr %98, align 8
  %100 = call i32 (ptr, ...) @error(ptr noundef @.str.146, ptr noundef @__func__._run_script, ptr noundef %99)
  br label %191

101:                                              ; preds = %93
  %102 = getelementptr inbounds [2 x i32], ptr %15, i64 0, i64 0
  %103 = load i32, ptr %102, align 4
  %104 = getelementptr inbounds nuw %struct.pollfd, ptr %17, i32 0, i32 0
  store i32 %103, ptr %104, align 4
  %105 = getelementptr inbounds nuw %struct.pollfd, ptr %17, i32 0, i32 1
  store i16 8209, ptr %105, align 4
  %106 = getelementptr inbounds nuw %struct.pollfd, ptr %17, i32 0, i32 2
  store i16 0, ptr %106, align 2
  %107 = load i32, ptr @syscfg_timeout, align 4
  %108 = call i32 @timeval_tot_wait(ptr noundef %18)
  %109 = sub i32 %107, %108
  store i32 %109, ptr %10, align 4
  %110 = load i32, ptr %10, align 4
  %111 = icmp sle i32 %110, 0
  br i1 %111, label %112, label %118

112:                                              ; preds = %101
  %113 = load ptr, ptr %6, align 8
  %114 = getelementptr inbounds ptr, ptr %113, i64 1
  %115 = load ptr, ptr %114, align 8
  %116 = load i32, ptr @syscfg_timeout, align 4
  %117 = call i32 (ptr, ...) @error(ptr noundef @.str.147, ptr noundef @__func__._run_script, ptr noundef %115, i32 noundef %116)
  br label %191

118:                                              ; preds = %101
  %119 = load i32, ptr %10, align 4
  %120 = icmp slt i32 %119, 500
  br i1 %120, label %121, label %123

121:                                              ; preds = %118
  %122 = load i32, ptr %10, align 4
  br label %124

123:                                              ; preds = %118
  br label %124

124:                                              ; preds = %123, %121
  %125 = phi i32 [ %122, %121 ], [ 500, %123 ]
  store i32 %125, ptr %10, align 4
  %126 = load i32, ptr %10, align 4
  %127 = call i32 @poll(ptr noundef %17, i64 noundef 1, i32 noundef %126)
  store i32 %127, ptr %9, align 4
  %128 = load i32, ptr %9, align 4
  %129 = icmp eq i32 %128, 0
  br i1 %129, label %130, label %131

130:                                              ; preds = %124
  br label %92, !llvm.loop !31

131:                                              ; preds = %124
  %132 = load i32, ptr %9, align 4
  %133 = icmp slt i32 %132, 0
  br i1 %133, label %134, label %139

134:                                              ; preds = %131
  %135 = load ptr, ptr %6, align 8
  %136 = getelementptr inbounds ptr, ptr %135, i64 1
  %137 = load ptr, ptr %136, align 8
  %138 = call i32 (ptr, ...) @error(ptr noundef @.str.148, ptr noundef @__func__._run_script, ptr noundef %137)
  br label %191

139:                                              ; preds = %131
  br label %140

140:                                              ; preds = %139
  %141 = getelementptr inbounds nuw %struct.pollfd, ptr %17, i32 0, i32 2
  %142 = load i16, ptr %141, align 2
  %143 = sext i16 %142 to i32
  %144 = and i32 %143, 1
  %145 = icmp eq i32 %144, 0
  br i1 %145, label %146, label %147

146:                                              ; preds = %140
  br label %191

147:                                              ; preds = %140
  %148 = getelementptr inbounds [2 x i32], ptr %15, i64 0, i64 0
  %149 = load i32, ptr %148, align 4
  %150 = load ptr, ptr %14, align 8
  %151 = load i32, ptr %12, align 4
  %152 = sext i32 %151 to i64
  %153 = getelementptr inbounds i8, ptr %150, i64 %152
  %154 = load i32, ptr %11, align 4
  %155 = load i32, ptr %12, align 4
  %156 = sub nsw i32 %154, %155
  %157 = sext i32 %156 to i64
  %158 = call i64 @read(i32 noundef %149, ptr noundef %153, i64 noundef %157)
  %159 = trunc i64 %158 to i32
  store i32 %159, ptr %9, align 4
  %160 = load i32, ptr %9, align 4
  %161 = icmp eq i32 %160, 0
  br i1 %161, label %162, label %163

162:                                              ; preds = %147
  br label %191

163:                                              ; preds = %147
  %164 = load i32, ptr %9, align 4
  %165 = icmp slt i32 %164, 0
  br i1 %165, label %166, label %174

166:                                              ; preds = %163
  %167 = call ptr @__errno_location() #11
  %168 = load i32, ptr %167, align 4
  %169 = icmp eq i32 %168, 11
  br i1 %169, label %170, label %171

170:                                              ; preds = %166
  br label %92, !llvm.loop !31

171:                                              ; preds = %166
  %172 = load ptr, ptr @syscfg_path, align 8
  %173 = call i32 (ptr, ...) @error(ptr noundef @.str.149, ptr noundef @__func__._run_script, ptr noundef %172)
  br label %191

174:                                              ; preds = %163
  %175 = load i32, ptr %9, align 4
  %176 = load i32, ptr %12, align 4
  %177 = add nsw i32 %176, %175
  store i32 %177, ptr %12, align 4
  %178 = load i32, ptr %12, align 4
  %179 = add nsw i32 %178, 1024
  %180 = load i32, ptr %11, align 4
  %181 = icmp sge i32 %179, %180
  br i1 %181, label %182, label %188

182:                                              ; preds = %174
  %183 = load i32, ptr %11, align 4
  %184 = mul nsw i32 %183, 2
  store i32 %184, ptr %11, align 4
  %185 = load i32, ptr %11, align 4
  %186 = sext i32 %185 to i64
  %187 = call ptr @slurm_xrecalloc(ptr noundef %14, i64 noundef 1, i64 noundef %186, i1 noundef zeroext true, i1 noundef zeroext false, ptr noundef @.str.100, i32 noundef 656, ptr noundef @__func__._run_script)
  store ptr %187, ptr %14, align 8
  br label %188

188:                                              ; preds = %182, %174
  br label %189

189:                                              ; preds = %188
  br label %190

190:                                              ; preds = %189
  br label %92, !llvm.loop !31

191:                                              ; preds = %171, %162, %146, %134, %112, %96
  %192 = load i32, ptr %13, align 4
  %193 = call i32 @killpg(i32 noundef %192, i32 noundef 15) #9
  %194 = call i32 @usleep(i32 noundef 10000)
  %195 = load i32, ptr %13, align 4
  %196 = call i32 @killpg(i32 noundef %195, i32 noundef 9) #9
  %197 = load i32, ptr %13, align 4
  %198 = load ptr, ptr %7, align 8
  %199 = call i32 @waitpid(i32 noundef %197, ptr noundef %198, i32 noundef 0)
  %200 = getelementptr inbounds [2 x i32], ptr %15, i64 0, i64 0
  %201 = load i32, ptr %200, align 4
  %202 = call i32 @close(i32 noundef %201)
  call void @llvm.lifetime.end.p0(i64 16, ptr %18) #9
  call void @llvm.lifetime.end.p0(i64 8, ptr %17) #9
  br label %203

203:                                              ; preds = %191, %76
  br label %204

204:                                              ; preds = %203
  %205 = load ptr, ptr %14, align 8
  store ptr %205, ptr %4, align 8
  store i32 1, ptr %16, align 4
  br label %206

206:                                              ; preds = %204, %32, %22
  call void @llvm.lifetime.end.p0(i64 8, ptr %15) #9
  call void @llvm.lifetime.end.p0(i64 8, ptr %14) #9
  call void @llvm.lifetime.end.p0(i64 4, ptr %13) #9
  call void @llvm.lifetime.end.p0(i64 4, ptr %12) #9
  call void @llvm.lifetime.end.p0(i64 4, ptr %11) #9
  call void @llvm.lifetime.end.p0(i64 4, ptr %10) #9
  call void @llvm.lifetime.end.p0(i64 4, ptr %9) #9
  call void @llvm.lifetime.end.p0(i64 4, ptr %8) #9
  %207 = load ptr, ptr %4, align 8
  ret ptr %207
}