; Function Attrs: nounwind uwtable
define internal fastcc ptr @_run_script(ptr noundef %0, ptr noundef nonnull %1, ptr noundef nonnull %2) unnamed_addr #0 {
  %4 = alloca ptr, align 8
  %5 = alloca [2 x i32], align 8
  %6 = alloca %struct.pollfd, align 4
  %7 = alloca %struct.timeval, align 8
  call void @llvm.lifetime.start.p0(i64 8, ptr nonnull %4) #14
  call void @llvm.lifetime.start.p0(i64 8, ptr nonnull %5) #14
  store i64 -1, ptr %5, align 8
  %8 = tail call i32 @access(ptr noundef %0, i32 noundef 5) #14
  %9 = icmp slt i32 %8, 0
  br i1 %9, label %10, label %13

10:                                               ; preds = %3
  %11 = tail call i32 (ptr, ...) @error(ptr noundef nonnull @.str.140, ptr noundef nonnull @__func__._run_script, ptr noundef %0) #14
  store i32 127, ptr %2, align 4
  %12 = tail call ptr @xstrdup(ptr noundef nonnull @.str.141) #14
  br label %118

13:                                               ; preds = %3
  %14 = call i32 @pipe(ptr noundef nonnull %5) #14
  %.not = icmp eq i32 %14, 0
  br i1 %.not, label %18, label %15

15:                                               ; preds = %13
  %16 = call i32 (ptr, ...) @error(ptr noundef nonnull @.str.142, ptr noundef nonnull @__func__._run_script) #14
  store i32 127, ptr %2, align 4
  %17 = call ptr @xstrdup(ptr noundef nonnull @.str.143) #14
  br label %118

18:                                               ; preds = %13
  %19 = call i32 @fork() #14
  %20 = icmp eq i32 %19, 0
  br i1 %20, label %21, label %38

21:                                               ; preds = %18
  %22 = call i64 @sysconf(i32 noundef 4) #14
  %23 = trunc i64 %22 to i32
  %24 = getelementptr inbounds nuw i8, ptr %5, i64 4
  %25 = load i32, ptr %24, align 4
  %26 = call i32 @dup2(i32 noundef %25, i32 noundef 2) #14
  %27 = load i32, ptr %24, align 4
  %28 = call i32 @dup2(i32 noundef %27, i32 noundef 1) #14
  %29 = icmp sgt i32 %23, 0
  br i1 %29, label %.lr.ph56, label %._crit_edge57

.lr.ph56:                                         ; preds = %21, %33
  %.04254 = phi i32 [ %34, %33 ], [ 0, %21 ]
  %30 = add nsw i32 %.04254, -3
  %or.cond = icmp ult i32 %30, -2
  br i1 %or.cond, label %31, label %33

31:                                               ; preds = %.lr.ph56
  %32 = call i32 @close(i32 noundef %.04254) #14
  br label %33

33:                                               ; preds = %.lr.ph56, %31
  %34 = add nuw nsw i32 %.04254, 1
  %exitcond.not = icmp eq i32 %34, %23
  br i1 %exitcond.not, label %._crit_edge57, label %.lr.ph56, !llvm.loop !26

._crit_edge57:                                    ; preds = %33, %21
  %35 = call i32 @setpgid(i32 noundef 0, i32 noundef 0) #14
  %36 = call i32 @execv(ptr noundef %0, ptr noundef nonnull %1) #14
  %37 = call i32 (ptr, ...) @error(ptr noundef nonnull @.str.144, ptr noundef nonnull @__func__._run_script, ptr noundef %0) #14
  call void @_exit(i32 noundef 127) #15
  unreachable

38:                                               ; preds = %18
  %39 = icmp slt i32 %19, 0
  br i1 %39, label %40, label %47

40:                                               ; preds = %38
  %41 = load i32, ptr %5, align 8
  %42 = call i32 @close(i32 noundef %41) #14
  %43 = getelementptr inbounds nuw i8, ptr %5, i64 4
  %44 = load i32, ptr %43, align 4
  %45 = call i32 @close(i32 noundef %44) #14
  %46 = call i32 (ptr, ...) @error(ptr noundef nonnull @.str.145, ptr noundef nonnull @__func__._run_script) #14
  br label %118

47:                                               ; preds = %38
  call void @llvm.lifetime.start.p0(i64 8, ptr nonnull %6) #14
  call void @llvm.lifetime.start.p0(i64 16, ptr nonnull %7) #14
  %48 = call ptr @slurm_xcalloc(i64 noundef 1, i64 noundef 1024, i1 noundef zeroext true, i1 noundef zeroext false, ptr noundef nonnull @.str.100, i32 noundef 614, ptr noundef nonnull @__func__._run_script) #14
  store ptr %48, ptr %4, align 8
  %49 = getelementptr inbounds nuw i8, ptr %5, i64 4
  %50 = load i32, ptr %49, align 4
  %51 = call i32 @close(i32 noundef %50) #14
  %52 = call i32 @gettimeofday(ptr noundef nonnull %7, ptr noundef null) #14
  %53 = load i64, ptr getelementptr inbounds nuw (i8, ptr @slurmctld_config, i64 328), align 8
  %.not475051 = icmp eq i64 %53, 0
  br i1 %.not475051, label %.lr.ph.lr.ph, label %.outer._crit_edge

.lr.ph.lr.ph:                                     ; preds = %47
  %54 = getelementptr inbounds nuw i8, ptr %6, i64 4
  %55 = getelementptr inbounds nuw i8, ptr %6, i64 6
  br label %.lr.ph

.lr.ph:                                           ; preds = %.lr.ph.lr.ph, %.outer
  %.040.ph53 = phi i32 [ 0, %.lr.ph.lr.ph ], [ %105, %.outer ]
  %.041.ph52 = phi i32 [ 1024, %.lr.ph.lr.ph ], [ %.1, %.outer ]
  %56 = zext nneg i32 %.040.ph53 to i64
  %57 = sub nsw i32 %.041.ph52, %.040.ph53
  %58 = sext i32 %57 to i64
  br label %62

.outer._crit_edge:                                ; preds = %.outer, %.backedge, %47
  %59 = getelementptr inbounds nuw i8, ptr %1, i64 8
  %60 = load ptr, ptr %59, align 8
  %61 = call i32 (ptr, ...) @error(ptr noundef nonnull @.str.146, ptr noundef nonnull @__func__._run_script, ptr noundef %60) #14
  br label %.loopexit

62:                                               ; preds = %.lr.ph, %.backedge
  %63 = load i32, ptr %5, align 8
  store i32 %63, ptr %6, align 4
  store i16 8209, ptr %54, align 4
  store i16 0, ptr %55, align 2
  %64 = load i32, ptr @syscfg_timeout, align 4
  %65 = call i32 @timeval_tot_wait(ptr noundef nonnull %7) #14
  %66 = sub i32 %64, %65
  %67 = icmp slt i32 %66, 1
  br i1 %67, label %68, label %73

68:                                               ; preds = %62
  %69 = getelementptr inbounds nuw i8, ptr %1, i64 8
  %70 = load ptr, ptr %69, align 8
  %71 = load i32, ptr @syscfg_timeout, align 4
  %72 = call i32 (ptr, ...) @error(ptr noundef nonnull @.str.147, ptr noundef nonnull @__func__._run_script, ptr noundef %70, i32 noundef %71) #14
  br label %.loopexit

73:                                               ; preds = %62
  %74 = call i32 @llvm.umin.i32(i32 %66, i32 500)
  %75 = call i32 @poll(ptr noundef nonnull %6, i64 noundef 1, i32 noundef %74) #14
  %76 = icmp eq i32 %75, 0
  br i1 %76, label %.backedge, label %78

.backedge:                                        ; preds = %73, %97
  %77 = load i64, ptr getelementptr inbounds nuw (i8, ptr @slurmctld_config, i64 328), align 8
  %.not47 = icmp eq i64 %77, 0
  br i1 %.not47, label %62, label %.outer._crit_edge, !llvm.loop !27

78:                                               ; preds = %73
  %79 = icmp slt i32 %75, 0
  br i1 %79, label %80, label %84

80:                                               ; preds = %78
  %81 = getelementptr inbounds nuw i8, ptr %1, i64 8
  %82 = load ptr, ptr %81, align 8
  %83 = call i32 (ptr, ...) @error(ptr noundef nonnull @.str.148, ptr noundef nonnull @__func__._run_script, ptr noundef %82) #14
  br label %.loopexit

84:                                               ; preds = %78
  %85 = load i16, ptr %55, align 2
  %86 = and i16 %85, 1
  %87 = icmp eq i16 %86, 0
  br i1 %87, label %.loopexit, label %88

88:                                               ; preds = %84
  %89 = load i32, ptr %5, align 8
  %90 = load ptr, ptr %4, align 8
  %91 = getelementptr inbounds nuw i8, ptr %90, i64 %56
  %92 = call i64 @read(i32 noundef %89, ptr noundef %91, i64 noundef %58) #14
  %93 = trunc i64 %92 to i32
  %94 = icmp eq i32 %93, 0
  br i1 %94, label %.loopexit, label %95

95:                                               ; preds = %88
  %96 = icmp slt i32 %93, 0
  br i1 %96, label %97, label %104

97:                                               ; preds = %95
  %98 = tail call ptr @__errno_location() #17
  %99 = load i32, ptr %98, align 4
  %100 = icmp eq i32 %99, 11
  br i1 %100, label %.backedge, label %101

101:                                              ; preds = %97
  %102 = load ptr, ptr @syscfg_path, align 8
  %103 = call i32 (ptr, ...) @error(ptr noundef nonnull @.str.149, ptr noundef nonnull @__func__._run_script, ptr noundef %102) #14
  br label %.loopexit

104:                                              ; preds = %95
  %105 = add nuw nsw i32 %.040.ph53, %93
  %106 = add nuw nsw i32 %105, 1024
  %.not48 = icmp slt i32 %106, %.041.ph52
  br i1 %.not48, label %.outer, label %107

107:                                              ; preds = %104
  %108 = shl nsw i32 %.041.ph52, 1
  %109 = sext i32 %108 to i64
  %110 = call ptr @slurm_xrecalloc(ptr noundef nonnull %4, i64 noundef 1, i64 noundef %109, i1 noundef zeroext true, i1 noundef zeroext false, ptr noundef nonnull @.str.100, i32 noundef 656, ptr noundef nonnull @__func__._run_script) #14
  store ptr %110, ptr %4, align 8
  br label %.outer

.outer:                                           ; preds = %107, %104
  %.1 = phi i32 [ %108, %107 ], [ %.041.ph52, %104 ]
  %111 = load i64, ptr getelementptr inbounds nuw (i8, ptr @slurmctld_config, i64 328), align 8
  %.not4750 = icmp eq i64 %111, 0
  br i1 %.not4750, label %.lr.ph, label %.outer._crit_edge, !llvm.loop !27

.loopexit:                                        ; preds = %88, %84, %101, %80, %68, %.outer._crit_edge
  %112 = call i32 @killpg(i32 noundef %19, i32 noundef 15) #14
  %113 = call i32 @usleep(i32 noundef 10000) #14
  %114 = call i32 @killpg(i32 noundef %19, i32 noundef 9) #14
  %115 = call i32 @waitpid(i32 noundef %19, ptr noundef nonnull %2, i32 noundef 0) #14
  %116 = load i32, ptr %5, align 8
  %117 = call i32 @close(i32 noundef %116) #14
  call void @llvm.lifetime.end.p0(i64 16, ptr nonnull %7) #14
  call void @llvm.lifetime.end.p0(i64 8, ptr nonnull %6) #14
  %.pre = load ptr, ptr %4, align 8
  br label %118

118:                                              ; preds = %.loopexit, %40, %15, %10
  %.0 = phi ptr [ %12, %10 ], [ %17, %15 ], [ null, %40 ], [ %.pre, %.loopexit ]
  call void @llvm.lifetime.end.p0(i64 8, ptr nonnull %5) #14
  call void @llvm.lifetime.end.p0(i64 8, ptr nonnull %4) #14
  ret ptr %.0
}